; Function Attrs: mustprogress uwtable
define void @_ZN19WiresharkMainWindow26setMenusForCaptureStoppingEv(ptr nocapture noundef nonnull readonly align 8 dereferenceable(520) %0) local_unnamed_addr #0 align 2 {
  %2 = getelementptr inbounds i8, ptr %0, i64 272
  %3 = load ptr, ptr %2, align 8
  %4 = getelementptr inbounds i8, ptr %3, i64 8
  %5 = load ptr, ptr %4, align 8
  tail call void @_ZN7QAction10setEnabledEb(ptr noundef nonnull align 8 dereferenceable(16) %5, i1 noundef zeroext false)
  %6 = load ptr, ptr %2, align 8
  %7 = getelementptr inbounds i8, ptr %6, i64 728
  %8 = load ptr, ptr %7, align 8
  tail call void @_ZN7QAction10setEnabledEb(ptr noundef nonnull align 8 dereferenceable(16) %8, i1 noundef zeroext false)
  ret void
}